; ModuleID = '43/1822.c'
source_filename = "43/1822.c"
target datalayout = "e-m:e-p270:32:32-p271:32:32-p272:64:64-i64:64-f80:128-n8:16:32:64-S128"
target triple = "x86_64-pc-linux-gnu"

@.str = private unnamed_addr constant [3 x i8] c"%d\00", align 1
@.str.1 = private unnamed_addr constant [7 x i8] c"%d %d\0A\00", align 1

; Function Attrs: noinline nounwind uwtable
define dso_local i32 @main() #0 {
  %1 = alloca i32, align 4
  %2 = alloca i32, align 4
  %3 = alloca i32, align 4
  %4 = alloca i32, align 4
  %5 = alloca i32, align 4
  %6 = alloca i32, align 4
  %7 = alloca i32, align 4
  store i32 0, i32* %1, align 4
  store i32 1, i32* %5, align 4
  store i32 1, i32* %7, align 4
  %8 = call i32 (i8*, ...) @__isoc99_scanf(i8* getelementptr inbounds ([3 x i8], [3 x i8]* @.str, i64 0, i64 0), i32* %4)
  store i32 3, i32* %2, align 4
  br label %9

9:                                                ; preds = %68, %0
  %10 = load i32, i32* %2, align 4
  %11 = load i32, i32* %4, align 4
  %12 = sdiv i32 %11, 2
  %13 = add nsw i32 %12, 1
  %14 = icmp slt i32 %10, %13
  br i1 %14, label %15, label %71

15:                                               ; preds = %9
  store i32 1, i32* %5, align 4
  store i32 1, i32* %7, align 4
  store i32 3, i32* %3, align 4
  br label %16

16:                                               ; preds = %29, %15
  %17 = load i32, i32* %3, align 4
  %18 = load i32, i32* %2, align 4
  %19 = sdiv i32 %18, 3
  %20 = add nsw i32 %19, 1
  %21 = icmp slt i32 %17, %20
  br i1 %21, label %22, label %32

22:                                               ; preds = %16
  %23 = load i32, i32* %2, align 4
  %24 = load i32, i32* %3, align 4
  %25 = srem i32 %23, %24
  %26 = icmp eq i32 %25, 0
  br i1 %26, label %27, label %28

27:                                               ; preds = %22
  store i32 2, i32* %5, align 4
  br label %32

28:                                               ; preds = %22
  br label %29

29:                                               ; preds = %28
  %30 = load i32, i32* %3, align 4
  %31 = add nsw i32 %30, 2
  store i32 %31, i32* %3, align 4
  br label %16

32:                                               ; preds = %27, %16
  %33 = load i32, i32* %5, align 4
  %34 = icmp eq i32 %33, 1
  br i1 %34, label %35, label %56

35:                                               ; preds = %32
  %36 = load i32, i32* %4, align 4
  %37 = load i32, i32* %2, align 4
  %38 = sub nsw i32 %36, %37
  store i32 %38, i32* %6, align 4
  store i32 3, i32* %3, align 4
  br label %39

39:                                               ; preds = %52, %35
  %40 = load i32, i32* %3, align 4
  %41 = load i32, i32* %6, align 4
  %42 = sdiv i32 %41, 3
  %43 = add nsw i32 %42, 1
  %44 = icmp slt i32 %40, %43
  br i1 %44, label %45, label %55

45:                                               ; preds = %39
  %46 = load i32, i32* %6, align 4
  %47 = load i32, i32* %3, align 4
  %48 = srem i32 %46, %47
  %49 = icmp eq i32 %48, 0
  br i1 %49, label %50, label %51

50:                                               ; preds = %45
  store i32 2, i32* %7, align 4
  br label %55

51:                                               ; preds = %45
  br label %52

52:                                               ; preds = %51
  %53 = load i32, i32* %3, align 4
  %54 = add nsw i32 %53, 2
  store i32 %54, i32* %3, align 4
  br label %39

55:                                               ; preds = %50, %39
  br label %57

56:                                               ; preds = %32
  br label %68

57:                                               ; preds = %55
  %58 = load i32, i32* %5, align 4
  %59 = icmp eq i32 %58, 1
  br i1 %59, label %60, label %67

60:                                               ; preds = %57
  %61 = load i32, i32* %7, align 4
  %62 = icmp eq i32 %61, 1
  br i1 %62, label %63, label %67

63:                                               ; preds = %60
  %64 = load i32, i32* %2, align 4
  %65 = load i32, i32* %6, align 4
  %66 = call i32 (i8*, ...) @printf(i8* getelementptr inbounds ([7 x i8], [7 x i8]* @.str.1, i64 0, i64 0), i32 %64, i32 %65)
  br label %67

67:                                               ; preds = %63, %60, %57
  br label %68

68:                                               ; preds = %67, %56
  %69 = load i32, i32* %2, align 4
  %70 = add nsw i32 %69, 2
  store i32 %70, i32* %2, align 4
  br label %9

71:                                               ; preds = %9
  %72 = load i32, i32* %1, align 4
  ret i32 %72
}

declare dso_local i32 @__isoc99_scanf(i8*, ...) #1

declare dso_local i32 @printf(i8*, ...) #1


!llvm.module.flags = !{!0}
!llvm.ident = !{!1}

!0 = !{i32 1, !"wchar_size", i32 4}
!1 = !{!"clang version 10.0.0-4ubuntu1 "}
